target datalayout = "e-m:e-p270:32:32-p271:32:32-p272:64:64-i64:64-i128:128-f80:128-n8:16:32:64-S128"
target triple = "x86_64-pc-linux-gnu"

%struct.H5_user_cb_state_t = type { %struct.H5E_user_cb_state_t }
%struct.H5E_user_cb_state_t = type { i32, %union.anon, ptr }
%union.anon = type { ptr }
%struct.H5VL_class_t = type { i32, i32, ptr, i32, i64, ptr, ptr, %struct.H5VL_info_class_t, %struct.H5VL_wrap_class_t, %struct.H5VL_attr_class_t, %struct.H5VL_dataset_class_t, %struct.H5VL_datatype_class_t, %struct.H5VL_file_class_t, %struct.H5VL_group_class_t, %struct.H5VL_link_class_t, %struct.H5VL_object_class_t, %struct.H5VL_introspect_class_t, %struct.H5VL_request_class_t, %struct.H5VL_blob_class_t, %struct.H5VL_token_class_t, ptr }
%struct.H5VL_info_class_t = type { i64, ptr, ptr, ptr, ptr, ptr }
%struct.H5VL_wrap_class_t = type { ptr, ptr, ptr, ptr, ptr }
%struct.H5VL_attr_class_t = type { ptr, ptr, ptr, ptr, ptr, ptr, ptr, ptr }
%struct.H5VL_dataset_class_t = type { ptr, ptr, ptr, ptr, ptr, ptr, ptr, ptr }
%struct.H5VL_datatype_class_t = type { ptr, ptr, ptr, ptr, ptr, ptr }
%struct.H5VL_file_class_t = type { ptr, ptr, ptr, ptr, ptr, ptr }
%struct.H5VL_group_class_t = type { ptr, ptr, ptr, ptr, ptr, ptr }
%struct.H5VL_link_class_t = type { ptr, ptr, ptr, ptr, ptr, ptr }
%struct.H5VL_object_class_t = type { ptr, ptr, ptr, ptr, ptr }
%struct.H5VL_introspect_class_t = type { ptr, ptr, ptr }
%struct.H5VL_request_class_t = type { ptr, ptr, ptr, ptr, ptr, ptr }
%struct.H5VL_blob_class_t = type { ptr, ptr, ptr, ptr }
%struct.H5VL_token_class_t = type { ptr, ptr, ptr }

@.str = private unnamed_addr constant [106 x i8] c"generated/home/dtcxzyw/WorkSpace/Projects/compilers/llvm-opt-benchmark/bench/hdf5/hdf5/src/H5VLcallback.c\00", align 1
@H5E_LIB_g = external global i64, align 8
@H5E_CANTSET_g = external global i64, align 8
@.str.2 = private unnamed_addr constant [37 x i8] c"preparation for user callback failed\00", align 1
@H5E_CANTRESTORE_g = external global i64, align 8
@H5E_VOL_g = external global i64, align 8
@H5VL_init_g = external global i8, align 1
@H5_libterm_g = external global i8, align 1
@H5E_UNSUPPORTED_g = external global i64, align 8
@H5E_CANTOPENOBJ_g = external global i64, align 8
@.str.127 = private unnamed_addr constant [19 x i8] c"object open failed\00", align 1
@__func__.H5VL__object_open = private unnamed_addr constant [18 x i8] c"H5VL__object_open\00", align 1
@.str.220 = private unnamed_addr constant [42 x i8] c"VOL connector has no 'object open' method\00", align 1

; Function Attrs: nounwind uwtable
define internal ptr @H5VL__object_open(ptr noundef %0, ptr noundef %1, ptr noundef %2, ptr noundef %3, i64 noundef %4, ptr noundef %5) #0 {
  %7 = alloca ptr, align 8
  %8 = alloca ptr, align 8
  %9 = alloca ptr, align 8
  %10 = alloca ptr, align 8
  %11 = alloca ptr, align 8
  %12 = alloca i64, align 8
  %13 = alloca ptr, align 8
  %14 = alloca ptr, align 8
  %15 = alloca i8, align 1
  %16 = alloca %struct.H5_user_cb_state_t, align 8
  %17 = alloca i32, align 4
  store ptr %0, ptr %8, align 8, !tbaa !42
  store ptr %1, ptr %9, align 8, !tbaa !60
  store ptr %2, ptr %10, align 8, !tbaa !54
  store ptr %3, ptr %11, align 8, !tbaa !42
  store i64 %4, ptr %12, align 8, !tbaa !3
  store ptr %5, ptr %13, align 8, !tbaa !42
  call void @llvm.lifetime.start.p0(i64 8, ptr %14) #8
  store ptr null, ptr %14, align 8, !tbaa !42
  call void @llvm.lifetime.start.p0(i64 1, ptr %15) #8
  store i8 0, ptr %15, align 1, !tbaa !9
  %18 = load i8, ptr @H5VL_init_g, align 1, !tbaa !9, !range !14, !noundef !15
  %19 = trunc i8 %18 to i1
  br i1 %19, label %24, label %20

20:                                               ; preds = %6
  %21 = load i8, ptr @H5_libterm_g, align 1, !tbaa !9, !range !14, !noundef !15
  %22 = trunc i8 %21 to i1
  %23 = xor i1 %22, true
  br label %24

24:                                               ; preds = %20, %6
  %25 = phi i1 [ true, %6 ], [ %23, %20 ]
  %26 = xor i1 %25, true
  %27 = xor i1 %26, true
  %28 = zext i1 %27 to i32
  %29 = sext i32 %28 to i64
  %30 = call i64 @llvm.expect.i64(i64 %29, i64 1)
  %31 = icmp ne i64 %30, 0
  br i1 %31, label %32, label %138

32:                                               ; preds = %24
  %33 = load ptr, ptr %10, align 8, !tbaa !54
  %34 = getelementptr inbounds nuw %struct.H5VL_class_t, ptr %33, i32 0, i32 15
  %35 = getelementptr inbounds nuw %struct.H5VL_object_class_t, ptr %34, i32 0, i32 0
  %36 = load ptr, ptr %35, align 8, !tbaa !157
  %37 = icmp eq ptr null, %36
  br i1 %37, label %38, label %57

38:                                               ; preds = %32
  br label %39

39:                                               ; preds = %38
  br label %40

40:                                               ; preds = %39
  br label %41

41:                                               ; preds = %40
  %42 = load i64, ptr @H5E_VOL_g, align 8, !tbaa !3
  %43 = load i64, ptr @H5E_UNSUPPORTED_g, align 8, !tbaa !3
  %44 = call i32 (ptr, ptr, i32, i64, i64, ptr, ...) @H5E_printf_stack(ptr noundef @.str, ptr noundef @__func__.H5VL__object_open, i32 noundef 5824, i64 noundef %42, i64 noundef %43, ptr noundef @.str.220)
  br label %45

45:                                               ; preds = %41
  br label %46

46:                                               ; preds = %45
  store i8 1, ptr %15, align 1, !tbaa !9
  %47 = load i8, ptr %15, align 1, !tbaa !9, !range !14, !noundef !15
  %48 = trunc i8 %47 to i1
  %49 = zext i1 %48 to i8
  store i8 %49, ptr %15, align 1, !tbaa !9
  br label %50

50:                                               ; preds = %46
  br label %51

51:                                               ; preds = %50
  br label %52

52:                                               ; preds = %51
  store ptr null, ptr %14, align 8, !tbaa !42
  br label %137

53:                                               ; No predecessors!
  br label %54

54:                                               ; preds = %53
  br label %55

55:                                               ; preds = %54
  br label %56

56:                                               ; preds = %55
  br label %57

57:                                               ; preds = %56, %32
  call void @llvm.lifetime.start.p0(i64 24, ptr %16) #8
  %58 = call i32 @H5_user_cb_prepare(ptr noundef %16)
  %59 = icmp slt i32 %58, 0
  br i1 %59, label %60, label %79

60:                                               ; preds = %57
  br label %61

61:                                               ; preds = %60
  br label %62

62:                                               ; preds = %61
  br label %63

63:                                               ; preds = %62
  %64 = load i64, ptr @H5E_LIB_g, align 8, !tbaa !3
  %65 = load i64, ptr @H5E_CANTSET_g, align 8, !tbaa !3
  %66 = call i32 (ptr, ptr, i32, i64, i64, ptr, ...) @H5E_printf_stack(ptr noundef @.str, ptr noundef @__func__.H5VL__object_open, i32 noundef 5827, i64 noundef %64, i64 noundef %65, ptr noundef @.str.2)
  br label %67

67:                                               ; preds = %63
  br label %68

68:                                               ; preds = %67
  store i8 1, ptr %15, align 1, !tbaa !9
  %69 = load i8, ptr %15, align 1, !tbaa !9, !range !14, !noundef !15
  %70 = trunc i8 %69 to i1
  %71 = zext i1 %70 to i8
  store i8 %71, ptr %15, align 1, !tbaa !9
  br label %72

72:                                               ; preds = %68
  br label %73

73:                                               ; preds = %72
  br label %74

74:                                               ; preds = %73
  store ptr null, ptr %14, align 8, !tbaa !42
  store i32 10, ptr %17, align 4
  br label %112

75:                                               ; No predecessors!
  br label %76

76:                                               ; preds = %75
  br label %77

77:                                               ; preds = %76
  br label %78

78:                                               ; preds = %77
  br label %79

79:                                               ; preds = %78, %57
  %80 = load ptr, ptr %10, align 8, !tbaa !54
  %81 = getelementptr inbounds nuw %struct.H5VL_class_t, ptr %80, i32 0, i32 15
  %82 = getelementptr inbounds nuw %struct.H5VL_object_class_t, ptr %81, i32 0, i32 0
  %83 = load ptr, ptr %82, align 8, !tbaa !157
  %84 = load ptr, ptr %8, align 8, !tbaa !42
  %85 = load ptr, ptr %9, align 8, !tbaa !60
  %86 = load ptr, ptr %11, align 8, !tbaa !42
  %87 = load i64, ptr %12, align 8, !tbaa !3
  %88 = load ptr, ptr %13, align 8, !tbaa !42
  %89 = call ptr %83(ptr noundef %84, ptr noundef %85, ptr noundef %86, i64 noundef %87, ptr noundef %88)
  store ptr %89, ptr %14, align 8, !tbaa !42
  %90 = call i32 @H5_user_cb_restore(ptr noundef %16)
  %91 = icmp slt i32 %90, 0
  br i1 %91, label %92, label %111

92:                                               ; preds = %79
  br label %93

93:                                               ; preds = %92
  br label %94

94:                                               ; preds = %93
  br label %95

95:                                               ; preds = %94
  %96 = load i64, ptr @H5E_LIB_g, align 8, !tbaa !3
  %97 = load i64, ptr @H5E_CANTRESTORE_g, align 8, !tbaa !3
  %98 = call i32 (ptr, ptr, i32, i64, i64, ptr, ...) @H5E_printf_stack(ptr noundef @.str, ptr noundef @__func__.H5VL__object_open, i32 noundef 5832, i64 noundef %96, i64 noundef %97, ptr noundef @.str.2)
  br label %99

99:                                               ; preds = %95
  br label %100

100:                                              ; preds = %99
  store i8 1, ptr %15, align 1, !tbaa !9
  %101 = load i8, ptr %15, align 1, !tbaa !9, !range !14, !noundef !15
  %102 = trunc i8 %101 to i1
  %103 = zext i1 %102 to i8
  store i8 %103, ptr %15, align 1, !tbaa !9
  br label %104

104:                                              ; preds = %100
  br label %105

105:                                              ; preds = %104
  br label %106

106:                                              ; preds = %105
  store ptr null, ptr %14, align 8, !tbaa !42
  store i32 10, ptr %17, align 4
  br label %112

107:                                              ; No predecessors!
  br label %108

108:                                              ; preds = %107
  br label %109

109:                                              ; preds = %108
  br label %110

110:                                              ; preds = %109
  br label %111

111:                                              ; preds = %110, %79
  store i32 0, ptr %17, align 4
  br label %112

112:                                              ; preds = %106, %74, %111
  call void @llvm.lifetime.end.p0(i64 24, ptr %16) #8
  %113 = load i32, ptr %17, align 4
  switch i32 %113, label %140 [
    i32 0, label %114
    i32 10, label %137
  ]

114:                                              ; preds = %112
  %115 = load ptr, ptr %14, align 8, !tbaa !42
  %116 = icmp eq ptr null, %115
  br i1 %116, label %117, label %136

117:                                              ; preds = %114
  br label %118

118:                                              ; preds = %117
  br label %119

119:                                              ; preds = %118
  br label %120

120:                                              ; preds = %119
  %121 = load i64, ptr @H5E_VOL_g, align 8, !tbaa !3
  %122 = load i64, ptr @H5E_CANTOPENOBJ_g, align 8, !tbaa !3
  %123 = call i32 (ptr, ptr, i32, i64, i64, ptr, ...) @H5E_printf_stack(ptr noundef @.str, ptr noundef @__func__.H5VL__object_open, i32 noundef 5834, i64 noundef %121, i64 noundef %122, ptr noundef @.str.127)
  br label %124

124:                                              ; preds = %120
  br label %125

125:                                              ; preds = %124
  store i8 1, ptr %15, align 1, !tbaa !9
  %126 = load i8, ptr %15, align 1, !tbaa !9, !range !14, !noundef !15
  %127 = trunc i8 %126 to i1
  %128 = zext i1 %127 to i8
  store i8 %128, ptr %15, align 1, !tbaa !9
  br label %129

129:                                              ; preds = %125
  br label %130

130:                                              ; preds = %129
  br label %131

131:                                              ; preds = %130
  store ptr null, ptr %14, align 8, !tbaa !42
  br label %137

132:                                              ; No predecessors!
  br label %133

133:                                              ; preds = %132
  br label %134

134:                                              ; preds = %133
  br label %135

135:                                              ; preds = %134
  br label %136

136:                                              ; preds = %135, %114
  br label %137

137:                                              ; preds = %136, %112, %131, %52
  br label %138

138:                                              ; preds = %137, %24
  %139 = load ptr, ptr %14, align 8, !tbaa !42
  store ptr %139, ptr %7, align 8
  store i32 1, ptr %17, align 4
  br label %140

140:                                              ; preds = %138, %112
  call void @llvm.lifetime.end.p0(i64 1, ptr %15) #8
  call void @llvm.lifetime.end.p0(i64 8, ptr %14) #8
  %141 = load ptr, ptr %7, align 8
  ret ptr %141
}